target datalayout = "e-m:e-p270:32:32-p271:32:32-p272:64:64-i64:64-i128:128-f80:128-n8:16:32:64-S128"
target triple = "x86_64-pc-linux-gnu"

%struct.WebPData = type { ptr, i64 }
%struct.WebPChunkIterator = type { i32, i32, %struct.WebPData, [6 x i32], ptr }

; Function Attrs: nounwind uwtable
define i32 @WebPDemuxNextChunk(ptr noundef %0) #0 {
  %2 = alloca i32, align 4
  %3 = alloca ptr, align 8
  %4 = alloca ptr, align 8
  store ptr %0, ptr %3, align 8, !tbaa !69
  %5 = load ptr, ptr %3, align 8, !tbaa !69
  %6 = icmp ne ptr %5, null
  br i1 %6, label %7, label %20

7:                                                ; preds = %1
  call void @llvm.lifetime.start.p0(i64 8, ptr %4) #7
  %8 = load ptr, ptr %3, align 8, !tbaa !69
  %9 = getelementptr inbounds nuw %struct.WebPChunkIterator, ptr %8, i32 0, i32 2
  %10 = getelementptr inbounds nuw %struct.WebPData, ptr %9, i32 0, i32 0
  %11 = load ptr, ptr %10, align 8, !tbaa !75
  %12 = getelementptr inbounds i8, ptr %11, i64 -8
  store ptr %12, ptr %4, align 8, !tbaa !34
  %13 = load ptr, ptr %4, align 8, !tbaa !34
  %14 = load ptr, ptr %3, align 8, !tbaa !69
  %15 = getelementptr inbounds nuw %struct.WebPChunkIterator, ptr %14, i32 0, i32 0
  %16 = load i32, ptr %15, align 8, !tbaa !79
  %17 = add nsw i32 %16, 1
  %18 = load ptr, ptr %3, align 8, !tbaa !69
  %19 = call i32 @SetChunk(ptr noundef %13, i32 noundef %17, ptr noundef %18)
  store i32 %19, ptr %2, align 4
  call void @llvm.lifetime.end.p0(i64 8, ptr %4) #7
  br label %21

20:                                               ; preds = %1
  store i32 0, ptr %2, align 4
  br label %21

21:                                               ; preds = %20, %7
  %22 = load i32, ptr %2, align 4
  ret i32 %22
}