; Function Attrs: nofree nounwind memory(readwrite, inaccessiblemem: none) uwtable
define range(i32 0, 2) i32 @WebPDemuxNextChunk(ptr noundef captures(address_is_null) %0) local_unnamed_addr #8 {
  %.not = icmp eq ptr %0, null
  br i1 %.not, label %9, label %2

2:                                                ; preds = %1
  %3 = getelementptr inbounds nuw i8, ptr %0, i64 8
  %4 = load ptr, ptr %3, align 8, !tbaa !84
  %5 = getelementptr inbounds i8, ptr %4, i64 -8
  %6 = load i32, ptr %0, align 8, !tbaa !88
  %7 = add nsw i32 %6, 1
  %8 = tail call fastcc i32 @SetChunk(ptr noundef nonnull %5, i32 noundef %7, ptr noundef %0)
  br label %9

9:                                                ; preds = %1, %2
  %.0 = phi i32 [ %8, %2 ], [ 0, %1 ]
  ret i32 %.0
}